target datalayout = "e-m:e-p270:32:32-p271:32:32-p272:64:64-i64:64-i128:128-f80:128-n8:16:32:64-S128"
target triple = "x86_64-pc-linux-gnu"

%"class.igl::opengl::glfw::imgui::ImGuiPlugin" = type { %"class.igl::opengl::glfw::ViewerPlugin", float, float, ptr, %"class.std::vector" }
%"class.igl::opengl::glfw::ViewerPlugin" = type { ptr, %"class.std::__cxx11::basic_string", ptr }
%"class.std::__cxx11::basic_string" = type { %"struct.std::__cxx11::basic_string<char>::_Alloc_hider", i64, %union.anon }
%"struct.std::__cxx11::basic_string<char>::_Alloc_hider" = type { ptr }
%union.anon = type { i64, [8 x i8] }
%"class.std::vector" = type { %"struct.std::_Vector_base" }
%"struct.std::_Vector_base" = type { %"struct.std::_Vector_base<igl::opengl::glfw::imgui::ImGuiWidget *, std::allocator<igl::opengl::glfw::imgui::ImGuiWidget *>>::_Vector_impl" }
%"struct.std::_Vector_base<igl::opengl::glfw::imgui::ImGuiWidget *, std::allocator<igl::opengl::glfw::imgui::ImGuiWidget *>>::_Vector_impl" = type { %"struct.std::_Vector_base<igl::opengl::glfw::imgui::ImGuiWidget *, std::allocator<igl::opengl::glfw::imgui::ImGuiWidget *>>::_Vector_impl_data" }
%"struct.std::_Vector_base<igl::opengl::glfw::imgui::ImGuiWidget *, std::allocator<igl::opengl::glfw::imgui::ImGuiWidget *>>::_Vector_impl_data" = type { ptr, ptr, ptr }
%struct.ImGuiIO = type { i32, i32, %struct.ImVec2, float, float, ptr, ptr, float, float, float, [22 x i32], float, float, ptr, ptr, float, i8, ptr, %struct.ImVec2, i8, i8, i8, i8, i8, i8, float, ptr, ptr, ptr, ptr, ptr, ptr, ptr, ptr, ptr, ptr, %struct.ImVec2, [5 x i8], float, float, i8, i8, i8, i8, [512 x i8], [20 x float], i8, i8, i8, i8, i8, i8, i8, float, i32, i32, i32, i32, i32, %struct.ImVec2, i8, i32, i32, %struct.ImVec2, [5 x %struct.ImVec2], [5 x double], [5 x i8], [5 x i8], [5 x i8], [5 x i8], [5 x i8], [5 x i8], [5 x float], [5 x float], [5 x %struct.ImVec2], [5 x float], [512 x float], [512 x float], [20 x float], [20 x float], float, i8, i16, %struct.ImVector }
%struct.ImVec2 = type { float, float }
%struct.ImVector = type { i32, i32, ptr }
%"class.__gnu_cxx::__normal_iterator" = type { ptr }

; Function Attrs: mustprogress nounwind uwtable
define linkonce_odr dso_local noundef nonnull align 8 dereferenceable(8) ptr @_ZNK9__gnu_cxx17__normal_iteratorIPPN3igl6opengl4glfw5imgui11ImGuiWidgetESt6vectorIS6_SaIS6_EEE4baseEv(ptr noundef nonnull align 8 dereferenceable(8) %0) #1 comdat align 2 {
  %2 = alloca ptr, align 8
  store ptr %0, ptr %2, align 8, !tbaa !94
  %3 = load ptr, ptr %2, align 8
  %4 = getelementptr inbounds nuw %"class.__gnu_cxx::__normal_iterator", ptr %3, i32 0, i32 0
  ret ptr %4
}

; Function Attrs: mustprogress nounwind uwtable
define linkonce_odr dso_local void @_ZN9__gnu_cxx17__normal_iteratorIPPN3igl6opengl4glfw5imgui11ImGuiWidgetESt6vectorIS6_SaIS6_EEEC2ERKS7_(ptr noundef nonnull align 8 dereferenceable(8) %0, ptr noundef nonnull align 8 dereferenceable(8) %1) unnamed_addr #1 comdat align 2 {
  %3 = alloca ptr, align 8
  %4 = alloca ptr, align 8
  store ptr %0, ptr %3, align 8, !tbaa !94
  store ptr %1, ptr %4, align 8, !tbaa !140
  %5 = load ptr, ptr %3, align 8
  %6 = getelementptr inbounds nuw %"class.__gnu_cxx::__normal_iterator", ptr %5, i32 0, i32 0
  %7 = load ptr, ptr %4, align 8, !tbaa !140
  %8 = load ptr, ptr %7, align 8, !tbaa !91
  store ptr %8, ptr %6, align 8, !tbaa !96
  ret void
}

; Function Attrs: mustprogress nounwind uwtable
define linkonce_odr dso_local noundef nonnull align 8 dereferenceable(8) ptr @_ZN9__gnu_cxx17__normal_iteratorIPPN3igl6opengl4glfw5imgui11ImGuiWidgetESt6vectorIS6_SaIS6_EEEppEv(ptr noundef nonnull align 8 dereferenceable(8) %0) #1 comdat align 2 {
  %2 = alloca ptr, align 8
  store ptr %0, ptr %2, align 8, !tbaa !94
  %3 = load ptr, ptr %2, align 8
  %4 = getelementptr inbounds nuw %"class.__gnu_cxx::__normal_iterator", ptr %3, i32 0, i32 0
  %5 = load ptr, ptr %4, align 8, !tbaa !96
  %6 = getelementptr inbounds nuw ptr, ptr %5, i32 1
  store ptr %6, ptr %4, align 8, !tbaa !96
  ret ptr %3
}

; Function Attrs: mustprogress nounwind uwtable
define linkonce_odr dso_local noundef nonnull align 8 dereferenceable(8) ptr @_ZNK9__gnu_cxx17__normal_iteratorIPPN3igl6opengl4glfw5imgui11ImGuiWidgetESt6vectorIS6_SaIS6_EEEdeEv(ptr noundef nonnull align 8 dereferenceable(8) %0) #1 comdat align 2 {
  %2 = alloca ptr, align 8
  store ptr %0, ptr %2, align 8, !tbaa !94
  %3 = load ptr, ptr %2, align 8
  %4 = getelementptr inbounds nuw %"class.__gnu_cxx::__normal_iterator", ptr %3, i32 0, i32 0
  %5 = load ptr, ptr %4, align 8, !tbaa !96
  ret ptr %5
}

; Function Attrs: inlinehint mustprogress nounwind uwtable
define linkonce_odr dso_local noundef zeroext i1 @_ZN9__gnu_cxxneIPPN3igl6opengl4glfw5imgui11ImGuiWidgetESt6vectorIS6_SaIS6_EEEEbRKNS_17__normal_iteratorIT_T0_EESG_(ptr noundef nonnull align 8 dereferenceable(8) %0, ptr noundef nonnull align 8 dereferenceable(8) %1) #6 comdat {
  %3 = alloca ptr, align 8
  %4 = alloca ptr, align 8
  store ptr %0, ptr %3, align 8, !tbaa !94
  store ptr %1, ptr %4, align 8, !tbaa !94
  %5 = load ptr, ptr %3, align 8, !tbaa !94
  %6 = call noundef nonnull align 8 dereferenceable(8) ptr @_ZNK9__gnu_cxx17__normal_iteratorIPPN3igl6opengl4glfw5imgui11ImGuiWidgetESt6vectorIS6_SaIS6_EEE4baseEv(ptr noundef nonnull align 8 dereferenceable(8) %5) #5
  %7 = load ptr, ptr %6, align 8, !tbaa !91
  %8 = load ptr, ptr %4, align 8, !tbaa !94
  %9 = call noundef nonnull align 8 dereferenceable(8) ptr @_ZNK9__gnu_cxx17__normal_iteratorIPPN3igl6opengl4glfw5imgui11ImGuiWidgetESt6vectorIS6_SaIS6_EEE4baseEv(ptr noundef nonnull align 8 dereferenceable(8) %8) #5
  %10 = load ptr, ptr %9, align 8, !tbaa !91
  %11 = icmp ne ptr %7, %10
  ret i1 %11
}

; Function Attrs: mustprogress nounwind uwtable
define linkonce_odr dso_local ptr @_ZNSt6vectorIPN3igl6opengl4glfw5imgui11ImGuiWidgetESaIS5_EE3endEv(ptr noundef nonnull align 8 dereferenceable(24) %0) #1 comdat align 2 {
  %2 = alloca %"class.__gnu_cxx::__normal_iterator", align 8
  %3 = alloca ptr, align 8
  store ptr %0, ptr %3, align 8, !tbaa !89
  %4 = load ptr, ptr %3, align 8
  %5 = getelementptr inbounds nuw %"struct.std::_Vector_base", ptr %4, i32 0, i32 0
  %6 = getelementptr inbounds nuw %"struct.std::_Vector_base<igl::opengl::glfw::imgui::ImGuiWidget *, std::allocator<igl::opengl::glfw::imgui::ImGuiWidget *>>::_Vector_impl_data", ptr %5, i32 0, i32 1
  call void @_ZN9__gnu_cxx17__normal_iteratorIPPN3igl6opengl4glfw5imgui11ImGuiWidgetESt6vectorIS6_SaIS6_EEEC2ERKS7_(ptr noundef nonnull align 8 dereferenceable(8) %2, ptr noundef nonnull align 8 dereferenceable(8) %6) #5
  %7 = getelementptr inbounds nuw %"class.__gnu_cxx::__normal_iterator", ptr %2, i32 0, i32 0
  %8 = load ptr, ptr %7, align 8
  ret ptr %8
}

; Function Attrs: mustprogress nounwind uwtable
define linkonce_odr dso_local ptr @_ZNSt6vectorIPN3igl6opengl4glfw5imgui11ImGuiWidgetESaIS5_EE5beginEv(ptr noundef nonnull align 8 dereferenceable(24) %0) #1 comdat align 2 {
  %2 = alloca %"class.__gnu_cxx::__normal_iterator", align 8
  %3 = alloca ptr, align 8
  store ptr %0, ptr %3, align 8, !tbaa !89
  %4 = load ptr, ptr %3, align 8
  %5 = getelementptr inbounds nuw %"struct.std::_Vector_base", ptr %4, i32 0, i32 0
  %6 = getelementptr inbounds nuw %"struct.std::_Vector_base<igl::opengl::glfw::imgui::ImGuiWidget *, std::allocator<igl::opengl::glfw::imgui::ImGuiWidget *>>::_Vector_impl_data", ptr %5, i32 0, i32 0
  call void @_ZN9__gnu_cxx17__normal_iteratorIPPN3igl6opengl4glfw5imgui11ImGuiWidgetESt6vectorIS6_SaIS6_EEEC2ERKS7_(ptr noundef nonnull align 8 dereferenceable(8) %2, ptr noundef nonnull align 8 dereferenceable(8) %6) #5
  %7 = getelementptr inbounds nuw %"class.__gnu_cxx::__normal_iterator", ptr %2, i32 0, i32 0
  %8 = load ptr, ptr %7, align 8
  ret ptr %8
}

; Function Attrs: mustprogress uwtable
define dso_local noundef zeroext i1 @_ZN3igl6opengl4glfw5imgui11ImGuiPlugin10mouse_moveEii(ptr noundef nonnull align 8 dereferenceable(88) %0, i32 noundef %1, i32 noundef %2) unnamed_addr #3 align 2 {
  %4 = alloca i1, align 1
  %5 = alloca ptr, align 8
  %6 = alloca i32, align 4
  %7 = alloca i32, align 4
  %8 = alloca ptr, align 8
  %9 = alloca %"class.__gnu_cxx::__normal_iterator", align 8
  %10 = alloca %"class.__gnu_cxx::__normal_iterator", align 8
  %11 = alloca i32, align 4
  %12 = alloca ptr, align 8
  store ptr %0, ptr %5, align 8, !tbaa !15
  store i32 %1, ptr %6, align 4, !tbaa !98
  store i32 %2, ptr %7, align 4, !tbaa !98
  %13 = load ptr, ptr %5, align 8
  %14 = call noundef nonnull align 8 dereferenceable(5464) ptr @_ZN5ImGui5GetIOEv()
  %15 = getelementptr inbounds nuw %struct.ImGuiIO, ptr %14, i32 0, i32 46
  %16 = load i8, ptr %15, align 4, !tbaa !109, !range !110, !noundef !111
  %17 = trunc i8 %16 to i1
  br i1 %17, label %18, label %19

18:                                               ; preds = %3
  store i1 true, ptr %4, align 1
  br label %50

19:                                               ; preds = %3
  call void @llvm.lifetime.start.p0(i64 8, ptr %8) #5
  %20 = getelementptr inbounds nuw %"class.igl::opengl::glfw::imgui::ImGuiPlugin", ptr %13, i32 0, i32 4
  store ptr %20, ptr %8, align 8, !tbaa !89
  call void @llvm.lifetime.start.p0(i64 8, ptr %9) #5
  %21 = load ptr, ptr %8, align 8, !tbaa !89
  %22 = call ptr @_ZNSt6vectorIPN3igl6opengl4glfw5imgui11ImGuiWidgetESaIS5_EE5beginEv(ptr noundef nonnull align 8 dereferenceable(24) %21) #5
  %23 = getelementptr inbounds nuw %"class.__gnu_cxx::__normal_iterator", ptr %9, i32 0, i32 0
  store ptr %22, ptr %23, align 8
  call void @llvm.lifetime.start.p0(i64 8, ptr %10) #5
  %24 = load ptr, ptr %8, align 8, !tbaa !89
  %25 = call ptr @_ZNSt6vectorIPN3igl6opengl4glfw5imgui11ImGuiWidgetESaIS5_EE3endEv(ptr noundef nonnull align 8 dereferenceable(24) %24) #5
  %26 = getelementptr inbounds nuw %"class.__gnu_cxx::__normal_iterator", ptr %10, i32 0, i32 0
  store ptr %25, ptr %26, align 8
  br label %27

27:                                               ; preds = %45, %19
  %28 = call noundef zeroext i1 @_ZN9__gnu_cxxneIPPN3igl6opengl4glfw5imgui11ImGuiWidgetESt6vectorIS6_SaIS6_EEEEbRKNS_17__normal_iteratorIT_T0_EESG_(ptr noundef nonnull align 8 dereferenceable(8) %9, ptr noundef nonnull align 8 dereferenceable(8) %10) #5
  br i1 %28, label %30, label %29

29:                                               ; preds = %27
  store i32 2, ptr %11, align 4
  br label %47

30:                                               ; preds = %27
  call void @llvm.lifetime.start.p0(i64 8, ptr %12) #5
  %31 = call noundef nonnull align 8 dereferenceable(8) ptr @_ZNK9__gnu_cxx17__normal_iteratorIPPN3igl6opengl4glfw5imgui11ImGuiWidgetESt6vectorIS6_SaIS6_EEEdeEv(ptr noundef nonnull align 8 dereferenceable(8) %9) #5
  store ptr %31, ptr %12, align 8, !tbaa !91
  %32 = load ptr, ptr %12, align 8, !tbaa !91
  %33 = load ptr, ptr %32, align 8, !tbaa !92
  %34 = load i32, ptr %6, align 4, !tbaa !98
  %35 = load i32, ptr %7, align 4, !tbaa !98
  %36 = load ptr, ptr %33, align 8, !tbaa !85
  %37 = getelementptr inbounds ptr, ptr %36, i64 7
  %38 = load ptr, ptr %37, align 8
  %39 = call noundef zeroext i1 %38(ptr noundef nonnull align 8 dereferenceable(56) %33, i32 noundef %34, i32 noundef %35)
  br i1 %39, label %40, label %41

40:                                               ; preds = %30
  store i1 true, ptr %4, align 1
  store i32 1, ptr %11, align 4
  br label %42

41:                                               ; preds = %30
  store i32 0, ptr %11, align 4
  br label %42

42:                                               ; preds = %41, %40
  call void @llvm.lifetime.end.p0(i64 8, ptr %12) #5
  %43 = load i32, ptr %11, align 4
  switch i32 %43, label %47 [
    i32 0, label %44
  ]

44:                                               ; preds = %42
  br label %45

45:                                               ; preds = %44
  %46 = call noundef nonnull align 8 dereferenceable(8) ptr @_ZN9__gnu_cxx17__normal_iteratorIPPN3igl6opengl4glfw5imgui11ImGuiWidgetESt6vectorIS6_SaIS6_EEEppEv(ptr noundef nonnull align 8 dereferenceable(8) %9) #5
  br label %27

47:                                               ; preds = %42, %29
  call void @llvm.lifetime.end.p0(i64 8, ptr %10) #5
  call void @llvm.lifetime.end.p0(i64 8, ptr %9) #5
  call void @llvm.lifetime.end.p0(i64 8, ptr %8) #5
  %48 = load i32, ptr %11, align 4
  switch i32 %48, label %52 [
    i32 2, label %49
    i32 1, label %50
  ]

49:                                               ; preds = %47
  store i1 false, ptr %4, align 1
  br label %50

50:                                               ; preds = %49, %47, %18
  %51 = load i1, ptr %4, align 1
  ret i1 %51

52:                                               ; preds = %47
  unreachable
}